target datalayout = "e-m:e-p270:32:32-p271:32:32-p272:64:64-i64:64-i128:128-f80:128-n8:16:32:64-S128"
target triple = "x86_64-pc-linux-gnu"

%struct.__va_list_tag = type { i32, i32, ptr, ptr }

@add_description.info_buffer = internal global [256 x i8] zeroinitializer, align 16
@.str.209 = private unnamed_addr constant [6 x i8] c" (%s)\00", align 1

; Function Attrs: alwaysinline
define internal i32 @vsnprintf.inline(ptr noalias %0, i64 %1, ptr noalias %2, ptr %3) #12 {
  %5 = alloca ptr, align 8
  %6 = alloca i64, align 8
  %7 = alloca ptr, align 8
  %8 = alloca ptr, align 8
  store ptr %0, ptr %5, align 8
  store i64 %1, ptr %6, align 8
  store ptr %2, ptr %7, align 8
  store ptr %3, ptr %8, align 8
  %9 = load ptr, ptr %5, align 8
  %10 = load i64, ptr %6, align 8
  %11 = load ptr, ptr %5, align 8
  %12 = call i64 @llvm.objectsize.i64.p0(ptr %11, i1 false, i1 true, i1 true)
  %13 = load ptr, ptr %7, align 8
  %14 = load ptr, ptr %8, align 8
  %15 = call i32 @__vsnprintf_chk(ptr noundef %9, i64 noundef %10, i32 noundef 2, i64 noundef %12, ptr noundef %13, ptr noundef %14)
  ret i32 %15
}

; Function Attrs: null_pointer_is_valid sspstrong uwtable
define internal void @add_description(ptr noundef %0, ptr noundef %1, ptr noundef %2, ...) #0 {
  %4 = alloca ptr, align 8
  %5 = alloca ptr, align 8
  %6 = alloca ptr, align 8
  %7 = alloca [1 x %struct.__va_list_tag], align 16
  store ptr %0, ptr %4, align 8
  store ptr %1, ptr %5, align 8
  store ptr %2, ptr %6, align 8
  call void @llvm.lifetime.start.p0(i64 24, ptr %7) #18
  %8 = getelementptr inbounds [1 x %struct.__va_list_tag], ptr %7, i64 0, i64 0
  call void @llvm.va_start.p0(ptr %8)
  %9 = load ptr, ptr %6, align 8
  %10 = getelementptr inbounds [1 x %struct.__va_list_tag], ptr %7, i64 0, i64 0
  %11 = call i32 @vsnprintf.inline(ptr noundef @add_description.info_buffer, i64 noundef 256, ptr noundef %9, ptr noundef %10) #18
  %12 = getelementptr inbounds [1 x %struct.__va_list_tag], ptr %7, i64 0, i64 0
  call void @llvm.va_end.p0(ptr %12)
  %13 = load ptr, ptr %4, align 8
  call void (ptr, ptr, ...) @proto_item_append_text(ptr noundef %13, ptr noundef @.str.209, ptr noundef @add_description.info_buffer)
  %14 = load ptr, ptr %5, align 8
  call void (ptr, ptr, ...) @proto_item_append_text(ptr noundef %14, ptr noundef @.str.209, ptr noundef @add_description.info_buffer)
  call void @llvm.lifetime.end.p0(i64 24, ptr %7) #18
  ret void
}