; Function Attrs: null_pointer_is_valid sspstrong uwtable
define internal void @add_description(ptr noundef %0, ptr noundef %1, ptr noundef %2, ...) unnamed_addr #0 {
  %4 = alloca [1 x %struct.__va_list_tag], align 16
  call void @llvm.lifetime.start.p0(i64 24, ptr nonnull %4) #16
  call void @llvm.va_start.p0(ptr nonnull %4)
  %5 = call i32 @__vsnprintf_chk(ptr noundef nonnull @add_description.info_buffer, i64 noundef 256, i32 noundef 2, i64 noundef 256, ptr noundef %2, ptr noundef nonnull %4) #16
  call void @llvm.va_end.p0(ptr nonnull %4)
  call void (ptr, ptr, ...) @proto_item_append_text(ptr noundef %0, ptr noundef nonnull @.str.209, ptr noundef nonnull @add_description.info_buffer)
  call void (ptr, ptr, ...) @proto_item_append_text(ptr noundef %1, ptr noundef nonnull @.str.209, ptr noundef nonnull @add_description.info_buffer)
  call void @llvm.lifetime.end.p0(i64 24, ptr nonnull %4) #16
  ret void
}